target datalayout = "e-m:e-p270:32:32-p271:32:32-p272:64:64-i64:64-i128:128-f80:128-n8:16:32:64-S128"
target triple = "x86_64-pc-linux-gnu"

%struct.SurfaceDataRasInfo = type { %struct.SurfaceDataBounds, ptr, i32, i32, i32, i32, ptr, ptr, ptr, ptr, ptr, ptr, i32, %union.anon.0 }
%struct.SurfaceDataBounds = type { i32, i32, i32, i32 }
%union.anon.0 = type { ptr, [56 x i8] }

; Function Attrs: nounwind uwtable
define hidden void @UshortIndexedToUshortIndexedConvert(ptr noundef %0, ptr noundef %1, i32 noundef %2, i32 noundef %3, ptr noundef %4, ptr noundef %5, ptr noundef %6, ptr noundef %7) #0 {
  %9 = alloca ptr, align 8
  %10 = alloca ptr, align 8
  %11 = alloca i32, align 4
  %12 = alloca i32, align 4
  %13 = alloca ptr, align 8
  %14 = alloca ptr, align 8
  %15 = alloca ptr, align 8
  %16 = alloca ptr, align 8
  %17 = alloca ptr, align 8
  %18 = alloca ptr, align 8
  %19 = alloca i32, align 4
  %20 = alloca i32, align 4
  %21 = alloca i32, align 4
  %22 = alloca i32, align 4
  %23 = alloca i32, align 4
  %24 = alloca ptr, align 8
  %25 = alloca ptr, align 8
  %26 = alloca ptr, align 8
  %27 = alloca ptr, align 8
  %28 = alloca ptr, align 8
  %29 = alloca ptr, align 8
  %30 = alloca i32, align 4
  %31 = alloca i32, align 4
  %32 = alloca i32, align 4
  %33 = alloca i32, align 4
  %34 = alloca i32, align 4
  %35 = alloca i32, align 4
  %36 = alloca i32, align 4
  store ptr %0, ptr %9, align 8
  store ptr %1, ptr %10, align 8
  store i32 %2, ptr %11, align 4
  store i32 %3, ptr %12, align 4
  store ptr %4, ptr %13, align 8
  store ptr %5, ptr %14, align 8
  store ptr %6, ptr %15, align 8
  store ptr %7, ptr %16, align 8
  %37 = load ptr, ptr %13, align 8
  %38 = getelementptr inbounds %struct.SurfaceDataRasInfo, ptr %37, i32 0, i32 4
  %39 = load i32, ptr %38, align 8
  store i32 %39, ptr %19, align 4
  %40 = load ptr, ptr %14, align 8
  %41 = getelementptr inbounds %struct.SurfaceDataRasInfo, ptr %40, i32 0, i32 4
  %42 = load i32, ptr %41, align 8
  store i32 %42, ptr %20, align 4
  %43 = load i32, ptr %11, align 4
  %44 = load ptr, ptr %14, align 8
  %45 = getelementptr inbounds %struct.SurfaceDataRasInfo, ptr %44, i32 0, i32 3
  %46 = load i32, ptr %45, align 4
  %47 = mul i32 %43, %46
  store i32 %47, ptr %21, align 4
  %48 = load ptr, ptr %13, align 8
  %49 = getelementptr inbounds %struct.SurfaceDataRasInfo, ptr %48, i32 0, i32 6
  %50 = load ptr, ptr %49, align 8
  store ptr %50, ptr %17, align 8
  %51 = load ptr, ptr %14, align 8
  %52 = getelementptr inbounds %struct.SurfaceDataRasInfo, ptr %51, i32 0, i32 6
  %53 = load ptr, ptr %52, align 8
  store ptr %53, ptr %18, align 8
  %54 = load ptr, ptr %17, align 8
  %55 = load ptr, ptr %18, align 8
  %56 = load ptr, ptr %13, align 8
  %57 = load ptr, ptr %14, align 8
  %58 = call zeroext i8 @checkSameLut(ptr noundef %54, ptr noundef %55, ptr noundef %56, ptr noundef %57)
  %59 = icmp ne i8 %58, 0
  br i1 %59, label %60, label %83

60:                                               ; preds = %8
  br label %61

61:                                               ; preds = %78, %60
  %62 = load ptr, ptr %10, align 8
  %63 = load ptr, ptr %9, align 8
  %64 = load i32, ptr %21, align 4
  %65 = sext i32 %64 to i64
  call void @llvm.memcpy.p0.p0.i64(ptr align 1 %62, ptr align 1 %63, i64 %65, i1 false)
  %66 = load ptr, ptr %9, align 8
  %67 = ptrtoint ptr %66 to i64
  %68 = load i32, ptr %19, align 4
  %69 = sext i32 %68 to i64
  %70 = add nsw i64 %67, %69
  %71 = inttoptr i64 %70 to ptr
  store ptr %71, ptr %9, align 8
  %72 = load ptr, ptr %10, align 8
  %73 = ptrtoint ptr %72 to i64
  %74 = load i32, ptr %20, align 4
  %75 = sext i32 %74 to i64
  %76 = add nsw i64 %73, %75
  %77 = inttoptr i64 %76 to ptr
  store ptr %77, ptr %10, align 8
  br label %78

78:                                               ; preds = %61
  %79 = load i32, ptr %12, align 4
  %80 = add i32 %79, -1
  store i32 %80, ptr %12, align 4
  %81 = icmp ugt i32 %80, 0
  br i1 %81, label %61, label %82, !llvm.loop !15

82:                                               ; preds = %78
  br label %295

83:                                               ; preds = %8
  br label %84

84:                                               ; preds = %83
  %85 = load ptr, ptr %9, align 8
  store ptr %85, ptr %28, align 8
  %86 = load ptr, ptr %10, align 8
  store ptr %86, ptr %29, align 8
  %87 = load ptr, ptr %13, align 8
  %88 = getelementptr inbounds %struct.SurfaceDataRasInfo, ptr %87, i32 0, i32 4
  %89 = load i32, ptr %88, align 8
  store i32 %89, ptr %30, align 4
  %90 = load ptr, ptr %14, align 8
  %91 = getelementptr inbounds %struct.SurfaceDataRasInfo, ptr %90, i32 0, i32 4
  %92 = load i32, ptr %91, align 8
  store i32 %92, ptr %31, align 4
  br label %93

93:                                               ; preds = %84
  br label %94

94:                                               ; preds = %93
  %95 = load ptr, ptr %14, align 8
  %96 = getelementptr inbounds %struct.SurfaceDataRasInfo, ptr %95, i32 0, i32 0
  %97 = getelementptr inbounds %struct.SurfaceDataBounds, ptr %96, i32 0, i32 1
  %98 = load i32, ptr %97, align 4
  %99 = and i32 %98, 7
  %100 = shl i32 %99, 3
  store i32 %100, ptr %23, align 4
  br label %101

101:                                              ; preds = %94
  %102 = load ptr, ptr %14, align 8
  %103 = getelementptr inbounds %struct.SurfaceDataRasInfo, ptr %102, i32 0, i32 7
  %104 = load ptr, ptr %103, align 8
  store ptr %104, ptr %27, align 8
  br label %105

105:                                              ; preds = %101
  %106 = load i32, ptr %11, align 4
  %107 = mul i32 %106, 2
  %108 = load i32, ptr %30, align 4
  %109 = sub i32 %108, %107
  store i32 %109, ptr %30, align 4
  %110 = load i32, ptr %11, align 4
  %111 = mul i32 %110, 2
  %112 = load i32, ptr %31, align 4
  %113 = sub i32 %112, %111
  store i32 %113, ptr %31, align 4
  br label %114

114:                                              ; preds = %289, %105
  %115 = load i32, ptr %11, align 4
  store i32 %115, ptr %32, align 4
  br label %116

116:                                              ; preds = %114
  %117 = load ptr, ptr %14, align 8
  %118 = getelementptr inbounds %struct.SurfaceDataRasInfo, ptr %117, i32 0, i32 8
  %119 = load ptr, ptr %118, align 8
  %120 = load i32, ptr %23, align 4
  %121 = sext i32 %120 to i64
  %122 = getelementptr inbounds i8, ptr %119, i64 %121
  store ptr %122, ptr %24, align 8
  %123 = load ptr, ptr %14, align 8
  %124 = getelementptr inbounds %struct.SurfaceDataRasInfo, ptr %123, i32 0, i32 9
  %125 = load ptr, ptr %124, align 8
  %126 = load i32, ptr %23, align 4
  %127 = sext i32 %126 to i64
  %128 = getelementptr inbounds i8, ptr %125, i64 %127
  store ptr %128, ptr %25, align 8
  %129 = load ptr, ptr %14, align 8
  %130 = getelementptr inbounds %struct.SurfaceDataRasInfo, ptr %129, i32 0, i32 10
  %131 = load ptr, ptr %130, align 8
  %132 = load i32, ptr %23, align 4
  %133 = sext i32 %132 to i64
  %134 = getelementptr inbounds i8, ptr %131, i64 %133
  store ptr %134, ptr %26, align 8
  %135 = load ptr, ptr %14, align 8
  %136 = getelementptr inbounds %struct.SurfaceDataRasInfo, ptr %135, i32 0, i32 0
  %137 = getelementptr inbounds %struct.SurfaceDataBounds, ptr %136, i32 0, i32 0
  %138 = load i32, ptr %137, align 8
  %139 = and i32 %138, 7
  store i32 %139, ptr %22, align 4
  br label %140

140:                                              ; preds = %116
  br label %141

141:                                              ; preds = %269, %140
  br label %142

142:                                              ; preds = %141
  br label %143

143:                                              ; preds = %142
  %144 = load ptr, ptr %17, align 8
  %145 = load ptr, ptr %28, align 8
  %146 = getelementptr inbounds i16, ptr %145, i64 0
  %147 = load i16, ptr %146, align 2
  %148 = zext i16 %147 to i32
  %149 = and i32 %148, 4095
  %150 = sext i32 %149 to i64
  %151 = getelementptr inbounds i32, ptr %144, i64 %150
  %152 = load i32, ptr %151, align 4
  store i32 %152, ptr %36, align 4
  br label %153

153:                                              ; preds = %143
  %154 = load i32, ptr %36, align 4
  %155 = and i32 %154, 255
  store i32 %155, ptr %35, align 4
  %156 = load i32, ptr %36, align 4
  %157 = ashr i32 %156, 8
  %158 = and i32 %157, 255
  store i32 %158, ptr %34, align 4
  %159 = load i32, ptr %36, align 4
  %160 = ashr i32 %159, 16
  %161 = and i32 %160, 255
  store i32 %161, ptr %33, align 4
  br label %162

162:                                              ; preds = %153
  br label %163

163:                                              ; preds = %162
  br label %164

164:                                              ; preds = %163
  %165 = load ptr, ptr %24, align 8
  %166 = load i32, ptr %22, align 4
  %167 = sext i32 %166 to i64
  %168 = getelementptr inbounds i8, ptr %165, i64 %167
  %169 = load i8, ptr %168, align 1
  %170 = sext i8 %169 to i32
  %171 = load i32, ptr %33, align 4
  %172 = add nsw i32 %171, %170
  store i32 %172, ptr %33, align 4
  %173 = load ptr, ptr %25, align 8
  %174 = load i32, ptr %22, align 4
  %175 = sext i32 %174 to i64
  %176 = getelementptr inbounds i8, ptr %173, i64 %175
  %177 = load i8, ptr %176, align 1
  %178 = sext i8 %177 to i32
  %179 = load i32, ptr %34, align 4
  %180 = add nsw i32 %179, %178
  store i32 %180, ptr %34, align 4
  %181 = load ptr, ptr %26, align 8
  %182 = load i32, ptr %22, align 4
  %183 = sext i32 %182 to i64
  %184 = getelementptr inbounds i8, ptr %181, i64 %183
  %185 = load i8, ptr %184, align 1
  %186 = sext i8 %185 to i32
  %187 = load i32, ptr %35, align 4
  %188 = add nsw i32 %187, %186
  store i32 %188, ptr %35, align 4
  br label %189

189:                                              ; preds = %164
  %190 = load i32, ptr %33, align 4
  %191 = load i32, ptr %34, align 4
  %192 = or i32 %190, %191
  %193 = load i32, ptr %35, align 4
  %194 = or i32 %192, %193
  %195 = ashr i32 %194, 8
  %196 = icmp ne i32 %195, 0
  br i1 %196, label %197, label %231

197:                                              ; preds = %189
  br label %198

198:                                              ; preds = %197
  %199 = load i32, ptr %33, align 4
  %200 = ashr i32 %199, 8
  %201 = icmp ne i32 %200, 0
  br i1 %201, label %202, label %207

202:                                              ; preds = %198
  %203 = load i32, ptr %33, align 4
  %204 = ashr i32 %203, 31
  %205 = xor i32 %204, -1
  %206 = and i32 %205, 255
  store i32 %206, ptr %33, align 4
  br label %207

207:                                              ; preds = %202, %198
  br label %208

208:                                              ; preds = %207
  br label %209

209:                                              ; preds = %208
  %210 = load i32, ptr %34, align 4
  %211 = ashr i32 %210, 8
  %212 = icmp ne i32 %211, 0
  br i1 %212, label %213, label %218

213:                                              ; preds = %209
  %214 = load i32, ptr %34, align 4
  %215 = ashr i32 %214, 31
  %216 = xor i32 %215, -1
  %217 = and i32 %216, 255
  store i32 %217, ptr %34, align 4
  br label %218

218:                                              ; preds = %213, %209
  br label %219

219:                                              ; preds = %218
  br label %220

220:                                              ; preds = %219
  %221 = load i32, ptr %35, align 4
  %222 = ashr i32 %221, 8
  %223 = icmp ne i32 %222, 0
  br i1 %223, label %224, label %229

224:                                              ; preds = %220
  %225 = load i32, ptr %35, align 4
  %226 = ashr i32 %225, 31
  %227 = xor i32 %226, -1
  %228 = and i32 %227, 255
  store i32 %228, ptr %35, align 4
  br label %229

229:                                              ; preds = %224, %220
  br label %230

230:                                              ; preds = %229
  br label %231

231:                                              ; preds = %230, %189
  br label %232

232:                                              ; preds = %231
  %233 = load ptr, ptr %27, align 8
  %234 = load i32, ptr %33, align 4
  %235 = trunc i32 %234 to i8
  %236 = zext i8 %235 to i32
  %237 = ashr i32 %236, 3
  %238 = shl i32 %237, 10
  %239 = load i32, ptr %34, align 4
  %240 = trunc i32 %239 to i8
  %241 = zext i8 %240 to i32
  %242 = ashr i32 %241, 3
  %243 = shl i32 %242, 5
  %244 = add nsw i32 %238, %243
  %245 = load i32, ptr %35, align 4
  %246 = trunc i32 %245 to i8
  %247 = zext i8 %246 to i32
  %248 = ashr i32 %247, 3
  %249 = add nsw i32 %244, %248
  %250 = sext i32 %249 to i64
  %251 = getelementptr inbounds i8, ptr %233, i64 %250
  %252 = load i8, ptr %251, align 1
  %253 = zext i8 %252 to i16
  %254 = load ptr, ptr %29, align 8
  %255 = getelementptr inbounds i16, ptr %254, i64 0
  store i16 %253, ptr %255, align 2
  br label %256

256:                                              ; preds = %232
  br label %257

257:                                              ; preds = %256
  %258 = load ptr, ptr %28, align 8
  %259 = ptrtoint ptr %258 to i64
  %260 = add nsw i64 %259, 2
  %261 = inttoptr i64 %260 to ptr
  store ptr %261, ptr %28, align 8
  %262 = load ptr, ptr %29, align 8
  %263 = ptrtoint ptr %262 to i64
  %264 = add nsw i64 %263, 2
  %265 = inttoptr i64 %264 to ptr
  store ptr %265, ptr %29, align 8
  %266 = load i32, ptr %22, align 4
  %267 = add nsw i32 %266, 1
  %268 = and i32 %267, 7
  store i32 %268, ptr %22, align 4
  br label %269

269:                                              ; preds = %257
  %270 = load i32, ptr %32, align 4
  %271 = add i32 %270, -1
  store i32 %271, ptr %32, align 4
  %272 = icmp ugt i32 %271, 0
  br i1 %272, label %141, label %273, !llvm.loop !16

273:                                              ; preds = %269
  %274 = load ptr, ptr %28, align 8
  %275 = ptrtoint ptr %274 to i64
  %276 = load i32, ptr %30, align 4
  %277 = sext i32 %276 to i64
  %278 = add nsw i64 %275, %277
  %279 = inttoptr i64 %278 to ptr
  store ptr %279, ptr %28, align 8
  %280 = load ptr, ptr %29, align 8
  %281 = ptrtoint ptr %280 to i64
  %282 = load i32, ptr %31, align 4
  %283 = sext i32 %282 to i64
  %284 = add nsw i64 %281, %283
  %285 = inttoptr i64 %284 to ptr
  store ptr %285, ptr %29, align 8
  %286 = load i32, ptr %23, align 4
  %287 = add nsw i32 %286, 8
  %288 = and i32 %287, 56
  store i32 %288, ptr %23, align 4
  br label %289

289:                                              ; preds = %273
  %290 = load i32, ptr %12, align 4
  %291 = add i32 %290, -1
  store i32 %291, ptr %12, align 4
  %292 = icmp ugt i32 %291, 0
  br i1 %292, label %114, label %293, !llvm.loop !17

293:                                              ; preds = %289
  br label %294

294:                                              ; preds = %293
  br label %295

295:                                              ; preds = %294, %82
  ret void
}