; Function Attrs: nounwind uwtable
define hidden void @UshortIndexedToUshortIndexedConvert(ptr noundef %0, ptr noundef %1, i32 noundef %2, i32 noundef %3, ptr noundef %4, ptr noundef %5, ptr nocapture readnone %6, ptr nocapture readnone %7) #1 {
  %9 = getelementptr inbounds i8, ptr %4, i64 32
  %10 = load i32, ptr %9, align 8
  %11 = getelementptr inbounds i8, ptr %5, i64 32
  %12 = load i32, ptr %11, align 8
  %13 = getelementptr inbounds i8, ptr %5, i64 28
  %14 = load i32, ptr %13, align 4
  %15 = getelementptr inbounds i8, ptr %4, i64 40
  %16 = load ptr, ptr %15, align 8
  %17 = getelementptr inbounds i8, ptr %5, i64 40
  %18 = load ptr, ptr %17, align 8
  %19 = tail call zeroext i8 @checkSameLut(ptr noundef %16, ptr noundef %18, ptr noundef %4, ptr noundef %5) #6
  %.not = icmp eq i8 %19, 0
  br i1 %.not, label %32, label %.preheader

.preheader:                                       ; preds = %8
  %20 = mul i32 %14, %2
  %21 = sext i32 %20 to i64
  %22 = sext i32 %10 to i64
  %23 = sext i32 %12 to i64
  br label %24

24:                                               ; preds = %.preheader, %24
  %.083 = phi i32 [ %31, %24 ], [ %3, %.preheader ]
  %.082 = phi ptr [ %30, %24 ], [ %1, %.preheader ]
  %.0 = phi ptr [ %27, %24 ], [ %0, %.preheader ]
  tail call void @llvm.memcpy.p0.p0.i64(ptr align 1 %.082, ptr align 1 %.0, i64 %21, i1 false)
  %25 = ptrtoint ptr %.0 to i64
  %26 = add nsw i64 %25, %22
  %27 = inttoptr i64 %26 to ptr
  %28 = ptrtoint ptr %.082 to i64
  %29 = add nsw i64 %28, %23
  %30 = inttoptr i64 %29 to ptr
  %31 = add i32 %.083, -1
  %.not97 = icmp eq i32 %31, 0
  br i1 %.not97, label %.loopexit, label %24, !llvm.loop !15

32:                                               ; preds = %8
  %33 = load i32, ptr %9, align 8
  %34 = load i32, ptr %11, align 8
  %35 = getelementptr inbounds i8, ptr %5, i64 4
  %36 = load i32, ptr %35, align 4
  %37 = shl i32 %36, 3
  %38 = getelementptr inbounds i8, ptr %5, i64 48
  %39 = load ptr, ptr %38, align 8
  %40 = shl i32 %2, 1
  %41 = sub i32 %33, %40
  %42 = sub i32 %34, %40
  %43 = sext i32 %41 to i64
  %44 = getelementptr inbounds i8, ptr %5, i64 56
  %45 = getelementptr inbounds i8, ptr %5, i64 64
  %46 = getelementptr inbounds i8, ptr %5, i64 72
  %47 = sext i32 %42 to i64
  br label %48

48:                                               ; preds = %110, %32
  %.086.in = phi i32 [ %37, %32 ], [ %115, %110 ]
  %.184 = phi i32 [ %3, %32 ], [ %116, %110 ]
  %.080 = phi ptr [ %0, %32 ], [ %112, %110 ]
  %.078 = phi ptr [ %1, %32 ], [ %114, %110 ]
  %.086 = and i32 %.086.in, 56
  %49 = load ptr, ptr %44, align 8
  %50 = zext nneg i32 %.086 to i64
  %51 = getelementptr inbounds i8, ptr %49, i64 %50
  %52 = load ptr, ptr %45, align 8
  %53 = getelementptr inbounds i8, ptr %52, i64 %50
  %54 = load ptr, ptr %46, align 8
  %55 = getelementptr inbounds i8, ptr %54, i64 %50
  %56 = load i32, ptr %5, align 8
  br label %57

57:                                               ; preds = %90, %48
  %.085.in = phi i32 [ %56, %48 ], [ %108, %90 ]
  %.181 = phi ptr [ %.080, %48 ], [ %104, %90 ]
  %.179 = phi ptr [ %.078, %48 ], [ %107, %90 ]
  %.077 = phi i32 [ %2, %48 ], [ %109, %90 ]
  %.085 = and i32 %.085.in, 7
  %58 = load i16, ptr %.181, align 2
  %59 = and i16 %58, 4095
  %60 = zext nneg i16 %59 to i64
  %61 = getelementptr inbounds i32, ptr %16, i64 %60
  %62 = load i32, ptr %61, align 4
  %63 = and i32 %62, 255
  %64 = lshr i32 %62, 8
  %65 = and i32 %64, 255
  %66 = lshr i32 %62, 16
  %67 = and i32 %66, 255
  %68 = zext nneg i32 %.085 to i64
  %69 = getelementptr inbounds i8, ptr %51, i64 %68
  %70 = load i8, ptr %69, align 1
  %71 = sext i8 %70 to i32
  %72 = add nsw i32 %67, %71
  %73 = getelementptr inbounds i8, ptr %53, i64 %68
  %74 = load i8, ptr %73, align 1
  %75 = sext i8 %74 to i32
  %76 = add nsw i32 %65, %75
  %77 = getelementptr inbounds i8, ptr %55, i64 %68
  %78 = load i8, ptr %77, align 1
  %79 = sext i8 %78 to i32
  %80 = add nsw i32 %63, %79
  %81 = or i32 %76, %72
  %82 = or i32 %81, %80
  %.not89 = icmp ult i32 %82, 256
  br i1 %.not89, label %90, label %83

83:                                               ; preds = %57
  %84 = tail call i32 @llvm.smax.i32(i32 %72, i32 0)
  %85 = tail call i32 @llvm.umin.i32(i32 %84, i32 255)
  %86 = tail call i32 @llvm.smax.i32(i32 %76, i32 0)
  %87 = tail call i32 @llvm.umin.i32(i32 %86, i32 255)
  %.not93 = icmp ult i32 %80, 256
  br i1 %.not93, label %90, label %88

88:                                               ; preds = %83
  %isnotneg.inv94 = icmp slt i32 %80, 0
  %89 = select i1 %isnotneg.inv94, i32 0, i32 255
  br label %90

90:                                               ; preds = %57, %83, %88
  %.176 = phi i32 [ %85, %88 ], [ %85, %83 ], [ %72, %57 ]
  %.1 = phi i32 [ %87, %88 ], [ %87, %83 ], [ %76, %57 ]
  %.073 = phi i32 [ %89, %88 ], [ %80, %83 ], [ %80, %57 ]
  %91 = shl nsw i32 %.176, 7
  %92 = and i32 %91, 31744
  %93 = shl nsw i32 %.1, 2
  %94 = and i32 %93, 992
  %95 = or disjoint i32 %94, %92
  %96 = lshr i32 %.073, 3
  %97 = or disjoint i32 %95, %96
  %98 = zext nneg i32 %97 to i64
  %99 = getelementptr inbounds i8, ptr %39, i64 %98
  %100 = load i8, ptr %99, align 1
  %101 = zext i8 %100 to i16
  store i16 %101, ptr %.179, align 2
  %102 = ptrtoint ptr %.181 to i64
  %103 = add nsw i64 %102, 2
  %104 = inttoptr i64 %103 to ptr
  %105 = ptrtoint ptr %.179 to i64
  %106 = add nsw i64 %105, 2
  %107 = inttoptr i64 %106 to ptr
  %108 = add nuw nsw i32 %.085, 1
  %109 = add i32 %.077, -1
  %.not95 = icmp eq i32 %109, 0
  br i1 %.not95, label %110, label %57, !llvm.loop !16

110:                                              ; preds = %90
  %111 = add nsw i64 %103, %43
  %112 = inttoptr i64 %111 to ptr
  %113 = add nsw i64 %106, %47
  %114 = inttoptr i64 %113 to ptr
  %115 = add nuw nsw i32 %.086, 8
  %116 = add i32 %.184, -1
  %.not96 = icmp eq i32 %116, 0
  br i1 %.not96, label %.loopexit, label %48, !llvm.loop !17

.loopexit:                                        ; preds = %24, %110
  ret void
}